target datalayout = "e-m:e-p270:32:32-p271:32:32-p272:64:64-i64:64-i128:128-f80:128-n8:16:32:64-S128"
target triple = "x86_64-pc-linux-gnu"

@.str.22 = private unnamed_addr constant [15 x i8] c"%-32s #RRGGBB\0A\00", align 1
@.str.23 = private unnamed_addr constant [5 x i8] c"name\00", align 1
@.str.24 = private unnamed_addr constant [21 x i8] c"%-32s #%02x%02x%02x\0A\00", align 1

; Function Attrs: nounwind uwtable
define i32 @show_colors(ptr noundef %0, ptr noundef %1, ptr noundef %2) #0 {
  %4 = alloca ptr, align 8
  %5 = alloca ptr, align 8
  %6 = alloca ptr, align 8
  %7 = alloca ptr, align 8
  %8 = alloca ptr, align 8
  %9 = alloca i32, align 4
  store ptr %0, ptr %4, align 8, !tbaa !4
  store ptr %1, ptr %5, align 8, !tbaa !8
  store ptr %2, ptr %6, align 8, !tbaa !8
  call void @llvm.lifetime.start.p0(i64 8, ptr %7) #11
  call void @llvm.lifetime.start.p0(i64 8, ptr %8) #11
  call void @llvm.lifetime.start.p0(i64 4, ptr %9) #11
  %10 = call i32 (ptr, ...) @printf(ptr noundef @.str.22, ptr noundef @.str.23)
  store i32 0, ptr %9, align 4, !tbaa !10
  br label %11

11:                                               ; preds = %30, %3
  %12 = load i32, ptr %9, align 4, !tbaa !10
  %13 = call ptr @av_get_known_color_name(i32 noundef %12, ptr noundef %8)
  store ptr %13, ptr %7, align 8, !tbaa !8
  %14 = icmp ne ptr %13, null
  br i1 %14, label %15, label %33

15:                                               ; preds = %11
  %16 = load ptr, ptr %7, align 8, !tbaa !8
  %17 = load ptr, ptr %8, align 8, !tbaa !8
  %18 = getelementptr inbounds i8, ptr %17, i64 0
  %19 = load i8, ptr %18, align 1, !tbaa !17
  %20 = zext i8 %19 to i32
  %21 = load ptr, ptr %8, align 8, !tbaa !8
  %22 = getelementptr inbounds i8, ptr %21, i64 1
  %23 = load i8, ptr %22, align 1, !tbaa !17
  %24 = zext i8 %23 to i32
  %25 = load ptr, ptr %8, align 8, !tbaa !8
  %26 = getelementptr inbounds i8, ptr %25, i64 2
  %27 = load i8, ptr %26, align 1, !tbaa !17
  %28 = zext i8 %27 to i32
  %29 = call i32 (ptr, ...) @printf(ptr noundef @.str.24, ptr noundef %16, i32 noundef %20, i32 noundef %24, i32 noundef %28)
  br label %30

30:                                               ; preds = %15
  %31 = load i32, ptr %9, align 4, !tbaa !10
  %32 = add nsw i32 %31, 1
  store i32 %32, ptr %9, align 4, !tbaa !10
  br label %11, !llvm.loop !106

33:                                               ; preds = %11
  call void @llvm.lifetime.end.p0(i64 4, ptr %9) #11
  call void @llvm.lifetime.end.p0(i64 8, ptr %8) #11
  call void @llvm.lifetime.end.p0(i64 8, ptr %7) #11
  ret i32 0
}