; Function Attrs: nounwind uwtable
define noundef i32 @show_colors(ptr noundef readnone captures(none) %0, ptr noundef readnone captures(none) %1, ptr noundef readnone captures(none) %2) local_unnamed_addr #2 {
  %4 = alloca ptr, align 8
  call void @llvm.lifetime.start.p0(i64 8, ptr nonnull %4) #17
  %5 = tail call i32 (ptr, ...) @printf(ptr noundef nonnull dereferenceable(1) @.str.22, ptr noundef nonnull @.str.23)
  %6 = call ptr @av_get_known_color_name(i32 noundef 0, ptr noundef nonnull %4) #17
  %.not3 = icmp eq ptr %6, null
  br i1 %.not3, label %._crit_edge, label %.lr.ph

.lr.ph:                                           ; preds = %3, %.lr.ph
  %7 = phi ptr [ %19, %.lr.ph ], [ %6, %3 ]
  %.04 = phi i32 [ %18, %.lr.ph ], [ 0, %3 ]
  %8 = load ptr, ptr %4, align 8, !tbaa !13
  %9 = load i8, ptr %8, align 1, !tbaa !8
  %10 = zext i8 %9 to i32
  %11 = getelementptr inbounds nuw i8, ptr %8, i64 1
  %12 = load i8, ptr %11, align 1, !tbaa !8
  %13 = zext i8 %12 to i32
  %14 = getelementptr inbounds nuw i8, ptr %8, i64 2
  %15 = load i8, ptr %14, align 1, !tbaa !8
  %16 = zext i8 %15 to i32
  %17 = call i32 (ptr, ...) @printf(ptr noundef nonnull dereferenceable(1) @.str.24, ptr noundef nonnull %7, i32 noundef %10, i32 noundef %13, i32 noundef %16)
  %18 = add nuw nsw i32 %.04, 1
  %19 = call ptr @av_get_known_color_name(i32 noundef %18, ptr noundef nonnull %4) #17
  %.not = icmp eq ptr %19, null
  br i1 %.not, label %._crit_edge, label %.lr.ph, !llvm.loop !91

._crit_edge:                                      ; preds = %.lr.ph, %3
  call void @llvm.lifetime.end.p0(i64 8, ptr nonnull %4) #17
  ret i32 0
}